target datalayout = "e-m:e-p270:32:32-p271:32:32-p272:64:64-i64:64-i128:128-f80:128-n8:16:32:64-S128"
target triple = "x86_64-pc-linux-gnu"

%struct.AVFilterContext = type { ptr, ptr, ptr, ptr, ptr, i32, ptr, ptr, i32, ptr, ptr, i32, i32, ptr, ptr, ptr, ptr, i32, ptr, i32, i32 }
%struct.ELBGFilterContext = type { ptr, ptr, %struct.AVLFG, i64, i32, ptr, i32, ptr, ptr, i32, ptr, [4 x i8], i32, i32 }
%struct.AVLFG = type { [64 x i32], i32 }

@.str.18 = private unnamed_addr constant [45 x i8] c"pal8 output allows max 256 codebook length.\0A\00", align 1

; Function Attrs: cold nounwind optsize uwtable
define internal i32 @init(ptr noundef %0) #0 {
  %2 = alloca i32, align 4
  %3 = alloca ptr, align 8
  %4 = alloca ptr, align 8
  %5 = alloca i32, align 4
  store ptr %0, ptr %3, align 8, !tbaa !4
  call void @llvm.lifetime.start.p0(i64 8, ptr %4) #4
  %6 = load ptr, ptr %3, align 8, !tbaa !4
  %7 = getelementptr inbounds nuw %struct.AVFilterContext, ptr %6, i32 0, i32 9
  %8 = load ptr, ptr %7, align 8, !tbaa !9
  store ptr %8, ptr %4, align 8, !tbaa !22
  %9 = load ptr, ptr %4, align 8, !tbaa !22
  %10 = getelementptr inbounds nuw %struct.ELBGFilterContext, ptr %9, i32 0, i32 13
  %11 = load i32, ptr %10, align 8, !tbaa !24
  %12 = icmp ne i32 %11, 0
  br i1 %12, label %13, label %20

13:                                               ; preds = %1
  %14 = load ptr, ptr %4, align 8, !tbaa !22
  %15 = getelementptr inbounds nuw %struct.ELBGFilterContext, ptr %14, i32 0, i32 9
  %16 = load i32, ptr %15, align 8, !tbaa !31
  %17 = icmp sgt i32 %16, 256
  br i1 %17, label %18, label %20

18:                                               ; preds = %13
  %19 = load ptr, ptr %3, align 8, !tbaa !4
  call void (ptr, i32, ptr, ...) @av_log(ptr noundef %19, i32 noundef 16, ptr noundef @.str.18)
  store i32 -22, ptr %2, align 4
  store i32 1, ptr %5, align 4
  br label %37

20:                                               ; preds = %13, %1
  %21 = load ptr, ptr %4, align 8, !tbaa !22
  %22 = getelementptr inbounds nuw %struct.ELBGFilterContext, ptr %21, i32 0, i32 3
  %23 = load i64, ptr %22, align 8, !tbaa !32
  %24 = icmp eq i64 %23, -1
  br i1 %24, label %25, label %30

25:                                               ; preds = %20
  %26 = call i32 @av_get_random_seed()
  %27 = zext i32 %26 to i64
  %28 = load ptr, ptr %4, align 8, !tbaa !22
  %29 = getelementptr inbounds nuw %struct.ELBGFilterContext, ptr %28, i32 0, i32 3
  store i64 %27, ptr %29, align 8, !tbaa !32
  br label %30

30:                                               ; preds = %25, %20
  %31 = load ptr, ptr %4, align 8, !tbaa !22
  %32 = getelementptr inbounds nuw %struct.ELBGFilterContext, ptr %31, i32 0, i32 2
  %33 = load ptr, ptr %4, align 8, !tbaa !22
  %34 = getelementptr inbounds nuw %struct.ELBGFilterContext, ptr %33, i32 0, i32 3
  %35 = load i64, ptr %34, align 8, !tbaa !32
  %36 = trunc i64 %35 to i32
  call void @av_lfg_init(ptr noundef %32, i32 noundef %36)
  store i32 0, ptr %2, align 4
  store i32 1, ptr %5, align 4
  br label %37

37:                                               ; preds = %30, %18
  call void @llvm.lifetime.end.p0(i64 8, ptr %4) #4
  %38 = load i32, ptr %2, align 4
  ret i32 %38
}