; Function Attrs: cold nounwind optsize uwtable
define internal range(i32 -22, 1) i32 @init(ptr noundef %0) #0 {
  %2 = getelementptr inbounds nuw i8, ptr %0, i64 72
  %3 = load ptr, ptr %2, align 8, !tbaa !4
  %4 = getelementptr inbounds nuw i8, ptr %3, i64 352
  %5 = load i32, ptr %4, align 8, !tbaa !20
  %.not = icmp eq i32 %5, 0
  br i1 %.not, label %11, label %6

6:                                                ; preds = %1
  %7 = getelementptr inbounds nuw i8, ptr %3, i64 328
  %8 = load i32, ptr %7, align 8, !tbaa !27
  %9 = icmp sgt i32 %8, 256
  br i1 %9, label %10, label %11

10:                                               ; preds = %6
  tail call void (ptr, i32, ptr, ...) @av_log(ptr noundef nonnull %0, i32 noundef 16, ptr noundef nonnull @.str.18) #4
  br label %22

11:                                               ; preds = %6, %1
  %12 = getelementptr inbounds nuw i8, ptr %3, i64 280
  %13 = load i64, ptr %12, align 8, !tbaa !28
  %14 = icmp eq i64 %13, -1
  br i1 %14, label %15, label %18

15:                                               ; preds = %11
  %16 = tail call i32 @av_get_random_seed() #4
  %17 = zext i32 %16 to i64
  store i64 %17, ptr %12, align 8, !tbaa !28
  br label %18

18:                                               ; preds = %15, %11
  %19 = phi i64 [ %17, %15 ], [ %13, %11 ]
  %20 = getelementptr inbounds nuw i8, ptr %3, i64 16
  %21 = trunc i64 %19 to i32
  tail call void @av_lfg_init(ptr noundef nonnull %20, i32 noundef %21) #4
  br label %22

22:                                               ; preds = %18, %10
  %.0 = phi i32 [ -22, %10 ], [ 0, %18 ]
  ret i32 %.0
}